target datalayout = "e-m:e-p270:32:32-p271:32:32-p272:64:64-i64:64-i128:128-f80:128-n8:16:32:64-S128"
target triple = "x86_64-pc-linux-gnu"

@.str.2 = private unnamed_addr constant [13 x i8] c"raised_error\00", align 1
@.str.7 = private unnamed_addr constant [26 x i8] c"../openssl/test/errtest.c\00", align 1
@.str.12 = private unnamed_addr constant [5 x i8] c"data\00", align 1
@.str.15 = private unnamed_addr constant [15 x i8] c"calling exit()\00", align 1
@.str.16 = private unnamed_addr constant [49 x i8] c"e = ERR_get_error_all(&f, &l, NULL, &data, NULL)\00", align 1
@.str.17 = private unnamed_addr constant [2 x i8] c"0\00", align 1
@.str.18 = private unnamed_addr constant [18 x i8] c"ERR_GET_REASON(e)\00", align 1
@.str.19 = private unnamed_addr constant [21 x i8] c"ERR_R_INTERNAL_ERROR\00", align 1
@.str.20 = private unnamed_addr constant [2 x i8] c"l\00", align 1
@.str.21 = private unnamed_addr constant [5 x i8] c"line\00", align 1
@.str.22 = private unnamed_addr constant [2 x i8] c"f\00", align 1
@.str.23 = private unnamed_addr constant [5 x i8] c"file\00", align 1
@.str.24 = private unnamed_addr constant [17 x i8] c"\22calling exit()\22\00", align 1

; Function Attrs: inlinehint nounwind uwtable
define internal i32 @ERR_GET_REASON(i64 noundef %0) #4 {
  %2 = alloca i32, align 4
  %3 = alloca i64, align 8
  store i64 %0, ptr %3, align 8, !tbaa !11
  %4 = load i64, ptr %3, align 8, !tbaa !11
  %5 = and i64 %4, 2147483648
  %6 = icmp ne i64 %5, 0
  br i1 %6, label %7, label %11

7:                                                ; preds = %1
  %8 = load i64, ptr %3, align 8, !tbaa !11
  %9 = and i64 %8, 2147483647
  %10 = trunc i64 %9 to i32
  store i32 %10, ptr %2, align 4
  br label %15

11:                                               ; preds = %1
  %12 = load i64, ptr %3, align 8, !tbaa !11
  %13 = and i64 %12, 8388607
  %14 = trunc i64 %13 to i32
  store i32 %14, ptr %2, align 4
  br label %15

15:                                               ; preds = %11, %7
  %16 = load i32, ptr %2, align 4
  ret i32 %16
}

; Function Attrs: nounwind uwtable
define internal i32 @raised_error() #0 {
  %1 = alloca i32, align 4
  %2 = alloca ptr, align 8
  %3 = alloca ptr, align 8
  %4 = alloca i32, align 4
  %5 = alloca i64, align 8
  %6 = alloca ptr, align 8
  %7 = alloca i32, align 4
  %8 = alloca i32, align 4
  call void @llvm.lifetime.start.p0(i64 8, ptr %2) #8
  call void @llvm.lifetime.start.p0(i64 8, ptr %3) #8
  call void @llvm.lifetime.start.p0(i64 4, ptr %4) #8
  call void @llvm.lifetime.start.p0(i64 8, ptr %5) #8
  call void @llvm.lifetime.start.p0(i64 8, ptr %6) #8
  call void @llvm.lifetime.start.p0(i64 4, ptr %7) #8
  store ptr @.str.7, ptr %6, align 8, !tbaa !8
  store i32 159, ptr %7, align 4, !tbaa !4
  call void @ERR_new()
  call void @ERR_set_debug(ptr noundef @.str.7, i32 noundef 159, ptr noundef @.str.2)
  call void (i32, i32, ptr, ...) @ERR_set_error(i32 noundef 1, i32 noundef 786691, ptr noundef @.str.15)
  %9 = call i64 @ERR_get_error_all(ptr noundef %2, ptr noundef %4, ptr noundef null, ptr noundef %3, ptr noundef null)
  store i64 %9, ptr %5, align 8, !tbaa !11
  %10 = call i32 @test_ulong_ne(ptr noundef @.str.7, i32 noundef 161, ptr noundef @.str.16, ptr noundef @.str.17, i64 noundef %9, i64 noundef 0)
  %11 = icmp ne i32 %10, 0
  br i1 %11, label %12, label %31

12:                                               ; preds = %0
  %13 = load i64, ptr %5, align 8, !tbaa !11
  %14 = call i32 @ERR_GET_REASON(i64 noundef %13)
  %15 = call i32 @test_int_eq(ptr noundef @.str.7, i32 noundef 162, ptr noundef @.str.18, ptr noundef @.str.19, i32 noundef %14, i32 noundef 786691)
  %16 = icmp ne i32 %15, 0
  br i1 %16, label %17, label %31

17:                                               ; preds = %12
  %18 = load i32, ptr %4, align 4, !tbaa !4
  %19 = load i32, ptr %7, align 4, !tbaa !4
  %20 = call i32 @test_int_eq(ptr noundef @.str.7, i32 noundef 164, ptr noundef @.str.20, ptr noundef @.str.21, i32 noundef %18, i32 noundef %19)
  %21 = icmp ne i32 %20, 0
  br i1 %21, label %22, label %31

22:                                               ; preds = %17
  %23 = load ptr, ptr %2, align 8, !tbaa !8
  %24 = load ptr, ptr %6, align 8, !tbaa !8
  %25 = call i32 @test_str_eq(ptr noundef @.str.7, i32 noundef 165, ptr noundef @.str.22, ptr noundef @.str.23, ptr noundef %23, ptr noundef %24)
  %26 = icmp ne i32 %25, 0
  br i1 %26, label %27, label %31

27:                                               ; preds = %22
  %28 = load ptr, ptr %3, align 8, !tbaa !8
  %29 = call i32 @test_str_eq(ptr noundef @.str.7, i32 noundef 167, ptr noundef @.str.12, ptr noundef @.str.24, ptr noundef %28, ptr noundef @.str.15)
  %30 = icmp ne i32 %29, 0
  br i1 %30, label %32, label %31

31:                                               ; preds = %27, %22, %17, %12, %0
  store i32 0, ptr %1, align 4
  store i32 1, ptr %8, align 4
  br label %33

32:                                               ; preds = %27
  store i32 1, ptr %1, align 4
  store i32 1, ptr %8, align 4
  br label %33

33:                                               ; preds = %32, %31
  call void @llvm.lifetime.end.p0(i64 4, ptr %7) #8
  call void @llvm.lifetime.end.p0(i64 8, ptr %6) #8
  call void @llvm.lifetime.end.p0(i64 8, ptr %5) #8
  call void @llvm.lifetime.end.p0(i64 4, ptr %4) #8
  call void @llvm.lifetime.end.p0(i64 8, ptr %3) #8
  call void @llvm.lifetime.end.p0(i64 8, ptr %2) #8
  %34 = load i32, ptr %1, align 4
  ret i32 %34
}