; Function Attrs: nounwind uwtable
define internal range(i32 0, 2) i32 @raised_error() #0 {
  %1 = alloca ptr, align 8
  %2 = alloca ptr, align 8
  %3 = alloca i32, align 4
  call void @llvm.lifetime.start.p0(i64 8, ptr nonnull %1) #6
  call void @llvm.lifetime.start.p0(i64 8, ptr nonnull %2) #6
  call void @llvm.lifetime.start.p0(i64 4, ptr nonnull %3) #6
  tail call void @ERR_new() #6
  tail call void @ERR_set_debug(ptr noundef nonnull @.str.7, i32 noundef 159, ptr noundef nonnull @.str.2) #6
  tail call void (i32, i32, ptr, ...) @ERR_set_error(i32 noundef 1, i32 noundef 786691, ptr noundef nonnull @.str.15) #6
  %4 = call i64 @ERR_get_error_all(ptr noundef nonnull %1, ptr noundef nonnull %3, ptr noundef null, ptr noundef nonnull %2, ptr noundef null) #6
  %5 = call i32 @test_ulong_ne(ptr noundef nonnull @.str.7, i32 noundef 161, ptr noundef nonnull @.str.16, ptr noundef nonnull @.str.17, i64 noundef %4, i64 noundef 0) #6
  %.not = icmp eq i32 %5, 0
  br i1 %.not, label %19, label %6

6:                                                ; preds = %0
  %7 = and i64 %4, 2147483648
  %.not.i = icmp eq i64 %7, 0
  %8 = trunc i64 %4 to i32
  %.0.v.i = select i1 %.not.i, i32 8388607, i32 2147483647
  %.0.i = and i32 %.0.v.i, %8
  %9 = call i32 @test_int_eq(ptr noundef nonnull @.str.7, i32 noundef 162, ptr noundef nonnull @.str.18, ptr noundef nonnull @.str.19, i32 noundef %.0.i, i32 noundef 786691) #6
  %.not3 = icmp eq i32 %9, 0
  br i1 %.not3, label %19, label %10

10:                                               ; preds = %6
  %11 = load i32, ptr %3, align 4, !tbaa !4
  %12 = call i32 @test_int_eq(ptr noundef nonnull @.str.7, i32 noundef 164, ptr noundef nonnull @.str.20, ptr noundef nonnull @.str.21, i32 noundef %11, i32 noundef 159) #6
  %.not4 = icmp eq i32 %12, 0
  br i1 %.not4, label %19, label %13

13:                                               ; preds = %10
  %14 = load ptr, ptr %1, align 8, !tbaa !8
  %15 = call i32 @test_str_eq(ptr noundef nonnull @.str.7, i32 noundef 165, ptr noundef nonnull @.str.22, ptr noundef nonnull @.str.23, ptr noundef %14, ptr noundef nonnull @.str.7) #6
  %.not5 = icmp eq i32 %15, 0
  br i1 %.not5, label %19, label %16

16:                                               ; preds = %13
  %17 = load ptr, ptr %2, align 8, !tbaa !8
  %18 = call i32 @test_str_eq(ptr noundef nonnull @.str.7, i32 noundef 167, ptr noundef nonnull @.str.12, ptr noundef nonnull @.str.24, ptr noundef %17, ptr noundef nonnull @.str.15) #6
  %.not6 = icmp ne i32 %18, 0
  %spec.select = zext i1 %.not6 to i32
  br label %19

19:                                               ; preds = %16, %0, %6, %10, %13
  %.0 = phi i32 [ 0, %13 ], [ 0, %10 ], [ 0, %6 ], [ 0, %0 ], [ %spec.select, %16 ]
  call void @llvm.lifetime.end.p0(i64 4, ptr nonnull %3) #6
  call void @llvm.lifetime.end.p0(i64 8, ptr nonnull %2) #6
  call void @llvm.lifetime.end.p0(i64 8, ptr nonnull %1) #6
  ret i32 %.0
}